; Function Attrs: mustprogress nofree norecurse nosync nounwind ssp willreturn memory(argmem: readwrite) uwtable
define void @_ZN6open3d8geometry5Ray3DC2ERKN5Eigen6MatrixIdLi3ELi1ELi0ELi3ELi1EEES6_(ptr noundef nonnull writeonly align 8 captures(none) dereferenceable(88) initializes((0, 60), (64, 88)) %0, ptr noundef nonnull readonly align 8 captures(none) dereferenceable(24) %1, ptr noundef nonnull readonly align 8 captures(none) dereferenceable(24) %2) unnamed_addr #3 align 2 personality ptr @__gxx_personality_v0 {
  %4 = getelementptr inbounds nuw i8, ptr %0, i64 8
  tail call void @llvm.memcpy.p0.p0.i64(ptr noundef nonnull align 8 dereferenceable(48) %4, ptr noundef nonnull readonly align 8 dereferenceable(24) %1, i64 24, i1 false), !tbaa.struct !37
  %5 = getelementptr inbounds nuw i8, ptr %0, i64 32
  tail call void @llvm.memcpy.p0.p0.i64(ptr noundef nonnull align 8 dereferenceable(24) %5, ptr noundef nonnull readonly align 8 dereferenceable(24) %2, i64 24, i1 false), !tbaa.struct !37
  %6 = getelementptr inbounds nuw i8, ptr %0, i64 56
  store i32 1, ptr %6, align 8, !tbaa !36
  %7 = load double, ptr %2, align 8, !tbaa !10
  %8 = fdiv double 1.000000e+00, %7
  %9 = getelementptr inbounds nuw i8, ptr %0, i64 64
  store double %8, ptr %9, align 8, !tbaa !20
  %10 = getelementptr inbounds nuw i8, ptr %2, i64 8
  %11 = load double, ptr %10, align 8, !tbaa !10
  %12 = fdiv double 1.000000e+00, %11
  %13 = getelementptr inbounds nuw i8, ptr %0, i64 72
  store double %12, ptr %13, align 8, !tbaa !28
  %14 = getelementptr inbounds nuw i8, ptr %2, i64 16
  %15 = load double, ptr %14, align 8, !tbaa !10
  %16 = fdiv double 1.000000e+00, %15
  %17 = getelementptr inbounds nuw i8, ptr %0, i64 80
  store double %16, ptr %17, align 8, !tbaa !29
  store ptr getelementptr inbounds nuw inrange(-16, 80) (i8, ptr @_ZTVN6open3d8geometry5Ray3DE, i64 16), ptr %0, align 8, !tbaa !15
  ret void
}